target datalayout = "e-m:e-p270:32:32-p271:32:32-p272:64:64-i64:64-i128:128-f80:128-n8:16:32:64-S128"
target triple = "x86_64-pc-linux-gnu"

%struct.WOLFSSL_BUFFER_INFO = type { ptr, i32 }
%struct.WOLFSSL = type <{ ptr, ptr, ptr, ptr, [48 x i8], [48 x i8], ptr, ptr, ptr, ptr, ptr, ptr, ptr, ptr, ptr, ptr, ptr, ptr, ptr, i32, [4 x i8], %struct.WOLFSSL_CIPHER, ptr, %struct.Ciphers, %struct.Ciphers, [8 x i8], %struct.Buffers, ptr, ptr, %struct.WOLFSSL_ALERT_HISTORY, %struct.WOLFSSL_ALERT, i32, i32, i32, i32, i32, i32, i32, i16, [2 x i8], i32, i8, %struct.RecordLayerHeader, %struct.MsgsReceived, %struct.ProtocolVersion, %struct.ProtocolVersion, %struct.CipherSpecs, [2 x i8], %struct.Keys, %struct.Options, ptr, i8, i8, i16, [10 x i16], i8, i8, i16, i16, [38 x i8], i32, i32, [4 x i8], ptr, i8, i8, [6 x i8], ptr, ptr, i16, i8, i8, i32, i8, [3 x i8], i32, %struct.OneTimeAuth, ptr }>
%struct.WOLFSSL_CIPHER = type { i8, i8, ptr }
%struct.Ciphers = type { ptr, ptr, ptr, ptr, i8, i8 }
%struct.Buffers = type { %struct.bufferStatic, %struct.bufferStatic, %struct.WOLFSSL_BUFFER_INFO, %struct.WOLFSSL_BUFFER_INFO, %struct.WOLFSSL_BUFFER_INFO, %struct.WOLFSSL_BUFFER_INFO, i32, i32, i8, i8, i8, i8, %struct.WOLFSSL_BUFFER_INFO, %struct.WOLFSSL_BUFFER_INFO, %struct.WOLFSSL_BUFFER_INFO, %struct.WOLFSSL_BUFFER_INFO, ptr, ptr, ptr, i8, i8, i32, i32, ptr, i32, [1 x ptr] }
%struct.bufferStatic = type { [5 x i8], ptr, i32, i32, i32, i8, i8 }
%struct.WOLFSSL_ALERT_HISTORY = type { %struct.WOLFSSL_ALERT, %struct.WOLFSSL_ALERT }
%struct.WOLFSSL_ALERT = type { i32, i32 }
%struct.RecordLayerHeader = type { i8, i8, i8, [2 x i8] }
%struct.MsgsReceived = type { i32 }
%struct.ProtocolVersion = type { i8, i8 }
%struct.CipherSpecs = type { i16, i16, i16, i16, i8, i8, i8, i8, i8, i8, i8, i8 }
%struct.Keys = type { [64 x i8], [64 x i8], [32 x i8], [32 x i8], [16 x i8], [16 x i8], [8 x i8], [12 x i8], [12 x i8], i32, i32, i32, i32, i32, i32, i8, i8, i8, i8 }
%struct.Options = type { i64, i64, i8, i8, i8, i8, i8, i8, i8, i8, i8, i8, i8, i8, i8, i8, i8, i8, i8, i8, i8, i8, i8, i16, i16, i16, i16, i16, i8 }
%struct.OneTimeAuth = type { ptr, i8 }

; Function Attrs: nounwind uwtable
define internal i32 @wolfSSL_write_internal(ptr noundef %0, ptr noundef %1, i64 noundef %2) #0 {
  %4 = alloca i32, align 4
  %5 = alloca ptr, align 8
  %6 = alloca ptr, align 8
  %7 = alloca i64, align 8
  %8 = alloca i32, align 4
  %9 = alloca i32, align 4
  store ptr %0, ptr %5, align 8, !tbaa !61
  store ptr %1, ptr %6, align 8, !tbaa !3
  store i64 %2, ptr %7, align 8, !tbaa !22
  call void @llvm.lifetime.start.p0(i64 4, ptr %8) #9
  br label %10

10:                                               ; preds = %3
  br label %11

11:                                               ; preds = %10
  br label %12

12:                                               ; preds = %11
  %13 = load ptr, ptr %5, align 8, !tbaa !61
  %14 = icmp eq ptr %13, null
  br i1 %14, label %18, label %15

15:                                               ; preds = %12
  %16 = load ptr, ptr %6, align 8, !tbaa !3
  %17 = icmp eq ptr %16, null
  br i1 %17, label %18, label %19

18:                                               ; preds = %15, %12
  store i32 -173, ptr %4, align 4
  store i32 1, ptr %9, align 4
  br label %33

19:                                               ; preds = %15
  %20 = call ptr @__errno_location() #11
  store i32 0, ptr %20, align 4, !tbaa !7
  %21 = load ptr, ptr %5, align 8, !tbaa !61
  %22 = load ptr, ptr %6, align 8, !tbaa !3
  %23 = load i64, ptr %7, align 8, !tbaa !22
  %24 = call i32 @SendData(ptr noundef %21, ptr noundef %22, i64 noundef %23)
  store i32 %24, ptr %8, align 4, !tbaa !7
  br label %25

25:                                               ; preds = %19
  br label %26

26:                                               ; preds = %25
  br label %27

27:                                               ; preds = %26
  %28 = load i32, ptr %8, align 4, !tbaa !7
  %29 = icmp slt i32 %28, 0
  br i1 %29, label %30, label %31

30:                                               ; preds = %27
  store i32 -1, ptr %4, align 4
  store i32 1, ptr %9, align 4
  br label %33

31:                                               ; preds = %27
  %32 = load i32, ptr %8, align 4, !tbaa !7
  store i32 %32, ptr %4, align 4
  store i32 1, ptr %9, align 4
  br label %33

33:                                               ; preds = %31, %30, %18
  call void @llvm.lifetime.end.p0(i64 4, ptr %8) #9
  %34 = load i32, ptr %4, align 4
  ret i32 %34
}

; Function Attrs: nounwind uwtable
define i32 @wolfSSL_write_ex(ptr noundef %0, ptr noundef %1, i64 noundef %2, ptr noundef %3) #0 {
  %5 = alloca ptr, align 8
  %6 = alloca ptr, align 8
  %7 = alloca i64, align 8
  %8 = alloca ptr, align 8
  %9 = alloca i32, align 4
  store ptr %0, ptr %5, align 8, !tbaa !61
  store ptr %1, ptr %6, align 8, !tbaa !3
  store i64 %2, ptr %7, align 8, !tbaa !22
  store ptr %3, ptr %8, align 8, !tbaa !51
  call void @llvm.lifetime.start.p0(i64 4, ptr %9) #9
  %10 = load ptr, ptr %8, align 8, !tbaa !51
  %11 = icmp ne ptr %10, null
  br i1 %11, label %12, label %14

12:                                               ; preds = %4
  %13 = load ptr, ptr %8, align 8, !tbaa !51
  store i64 0, ptr %13, align 8, !tbaa !22
  br label %14

14:                                               ; preds = %12, %4
  %15 = load ptr, ptr %5, align 8, !tbaa !61
  %16 = load ptr, ptr %6, align 8, !tbaa !3
  %17 = load i64, ptr %7, align 8, !tbaa !22
  %18 = call i32 @wolfSSL_write_internal(ptr noundef %15, ptr noundef %16, i64 noundef %17)
  store i32 %18, ptr %9, align 4, !tbaa !7
  %19 = load i32, ptr %9, align 4, !tbaa !7
  %20 = icmp sge i32 %19, 0
  br i1 %20, label %21, label %60

21:                                               ; preds = %14
  %22 = load ptr, ptr %8, align 8, !tbaa !51
  %23 = icmp ne ptr %22, null
  br i1 %23, label %24, label %28

24:                                               ; preds = %21
  %25 = load i32, ptr %9, align 4, !tbaa !7
  %26 = sext i32 %25 to i64
  %27 = load ptr, ptr %8, align 8, !tbaa !51
  store i64 %26, ptr %27, align 8, !tbaa !22
  br label %28

28:                                               ; preds = %24, %21
  %29 = load i32, ptr %9, align 4, !tbaa !7
  %30 = icmp eq i32 %29, 0
  br i1 %30, label %31, label %42

31:                                               ; preds = %28
  %32 = load ptr, ptr %5, align 8, !tbaa !61
  %33 = getelementptr inbounds nuw %struct.WOLFSSL, ptr %32, i32 0, i32 49
  %34 = getelementptr inbounds nuw %struct.Options, ptr %33, i32 0, i32 1
  %35 = load i64, ptr %34, align 8
  %36 = lshr i64 %35, 34
  %37 = and i64 %36, 1
  %38 = trunc i64 %37 to i16
  %39 = zext i16 %38 to i32
  %40 = icmp ne i32 %39, 0
  br i1 %40, label %41, label %42

41:                                               ; preds = %31
  store i32 0, ptr %9, align 4, !tbaa !7
  br label %59

42:                                               ; preds = %31, %28
  %43 = load i32, ptr %9, align 4, !tbaa !7
  %44 = sext i32 %43 to i64
  %45 = load i64, ptr %7, align 8, !tbaa !22
  %46 = icmp ult i64 %44, %45
  br i1 %46, label %47, label %57

47:                                               ; preds = %42
  %48 = load ptr, ptr %5, align 8, !tbaa !61
  %49 = getelementptr inbounds nuw %struct.WOLFSSL, ptr %48, i32 0, i32 49
  %50 = getelementptr inbounds nuw %struct.Options, ptr %49, i32 0, i32 1
  %51 = load i64, ptr %50, align 8
  %52 = lshr i64 %51, 34
  %53 = and i64 %52, 1
  %54 = trunc i64 %53 to i16
  %55 = icmp ne i16 %54, 0
  br i1 %55, label %57, label %56

56:                                               ; preds = %47
  store i32 0, ptr %9, align 4, !tbaa !7
  br label %58

57:                                               ; preds = %47, %42
  store i32 1, ptr %9, align 4, !tbaa !7
  br label %58

58:                                               ; preds = %57, %56
  br label %59

59:                                               ; preds = %58, %41
  br label %61

60:                                               ; preds = %14
  store i32 0, ptr %9, align 4, !tbaa !7
  br label %61

61:                                               ; preds = %60, %59
  %62 = load i32, ptr %9, align 4, !tbaa !7
  call void @llvm.lifetime.end.p0(i64 4, ptr %9) #9
  ret i32 %62
}