; Function Attrs: nounwind uwtable
define range(i32 0, 2) i32 @wolfSSL_write_ex(ptr noundef %0, ptr noundef %1, i64 noundef %2, ptr noundef writeonly captures(address_is_null) %3) local_unnamed_addr #0 {
  %.not = icmp eq ptr %3, null
  br i1 %.not, label %6, label %5

5:                                                ; preds = %4
  store i64 0, ptr %3, align 8, !tbaa !27
  br label %6

6:                                                ; preds = %5, %4
  %7 = icmp eq ptr %0, null
  %8 = icmp eq ptr %1, null
  %or.cond.i = or i1 %7, %8
  br i1 %or.cond.i, label %wolfSSL_write_internal.exit.thread, label %wolfSSL_write_internal.exit

wolfSSL_write_internal.exit:                      ; preds = %6
  %9 = tail call ptr @__errno_location() #24
  store i32 0, ptr %9, align 4, !tbaa !3
  %10 = tail call i32 @SendData(ptr noundef nonnull %0, ptr noundef nonnull %1, i64 noundef %2) #22
  %..i = tail call i32 @llvm.smax.i32(i32 %10, i32 -1)
  %11 = icmp sgt i32 %10, -1
  br i1 %11, label %12, label %wolfSSL_write_internal.exit.thread

12:                                               ; preds = %wolfSSL_write_internal.exit
  br i1 %.not, label %15, label %13

13:                                               ; preds = %12
  %14 = zext nneg i32 %..i to i64
  store i64 %14, ptr %3, align 8, !tbaa !27
  br label %15

15:                                               ; preds = %13, %12
  %16 = icmp eq i32 %10, 0
  br i1 %16, label %17, label %21

17:                                               ; preds = %15
  %18 = getelementptr inbounds nuw i8, ptr %0, i64 1024
  %19 = load i64, ptr %18, align 8
  %20 = and i64 %19, 17179869184
  %.not16 = icmp eq i64 %20, 0
  br i1 %.not16, label %21, label %wolfSSL_write_internal.exit.thread

21:                                               ; preds = %17, %15
  %22 = zext nneg i32 %..i to i64
  %23 = icmp ugt i64 %2, %22
  br i1 %23, label %24, label %28

24:                                               ; preds = %21
  %25 = getelementptr inbounds nuw i8, ptr %0, i64 1024
  %26 = load i64, ptr %25, align 8
  %27 = and i64 %26, 17179869184
  %.not17 = icmp eq i64 %27, 0
  br i1 %.not17, label %wolfSSL_write_internal.exit.thread, label %28

28:                                               ; preds = %24, %21
  br label %wolfSSL_write_internal.exit.thread

wolfSSL_write_internal.exit.thread:               ; preds = %6, %wolfSSL_write_internal.exit, %24, %17, %28
  %.0 = phi i32 [ 1, %28 ], [ 0, %17 ], [ 0, %24 ], [ 0, %wolfSSL_write_internal.exit ], [ 0, %6 ]
  ret i32 %.0
}